(dp1
S'output'
p2
S''
sS'layer'
p3
S'C:\\APPS\\augmi-a\\applications\\init/views\\default/index.html'
p4
sS'code'
p5
S'response.write(\'<!DOCTYPE html PUBLIC "-//W3C//DTD XHTML 1.0 Strict//EN" "http://www.w3.org/TR/xhtml1/DTD/xhtml1-strict.dtd">\\n<html xmlns="http://www.w3.org/1999/xhtml">\\n<head>\\n  <link href="\', escape=False)\nresponse.write(URL(request.application,\'static\',\'custom.css\'))\nresponse.write(\'" rel="stylesheet" type="text/css"/>\\n  <script type="text/javascript" src="\', escape=False)\nresponse.write(URL(r=request,c=\'static\',f=\'jquery.js\'))\nresponse.write(\'"></script>\\n  <script type="text/javascript" src="\', escape=False)\nresponse.write(URL(r=request,c=\'static\',f=\'jquery.corner.js\'))\nresponse.write(\'"></script>\\n  <script type="text/javascript" src="\', escape=False)\nresponse.write(URL(r=request,c=\'static\',f=\'jqModal.js\'))\nresponse.write(\'"></script>\\n  <script type="text/javascript" src="\', escape=False)\nresponse.write(URL(r=request,c=\'static\',f=\'ui.core.js\'))\nresponse.write(\'"></script>\\n  <script type="text/javascript" src="\', escape=False)\nresponse.write(URL(r=request,c=\'static\',f=\'ui.accordion.js\'))\nresponse.write(\'"></script>\\n  <script type="text/javascript" src="\', escape=False)\nresponse.write(URL(r=request,c=\'static\',f=\'jquery-1.3.2.min.js\'))\nresponse.write(\'"></script>\\n  <script type="text/javascript" src="\', escape=False)\nresponse.write(URL(r=request,c=\'static\',f=\'jquery-ui-1.7.2.custom.min.js\'))\nresponse.write(\'"></script>\\n  <style type="text/css">\\n  #myhandle {position: absolute;z-index: 100;height: 25px;width: 35px;top: auto;background: \', escape=False)\nresponse.write(URL(r=request,c=\'static/images\',f=\'electric_e0.gif\'))\nresponse.write(\' \\n  </style>\\n<meta http-equiv="Content-Type" content="text/html; charset=iso-8859-1" />\\n<title>\', escape=False)\nresponse.write(response.title or request.application)\nresponse.write(\'</title>\\n\', escape=False)\nresponse.files.append(URL(r=request,c=\'static\',f=\'styles.css\'))\nresponse.write(\'\\n\', escape=False)\nresponse.files.append(URL(r=request,c=\'static\',f=\'jqModal.css\'))\nresponse.write(\'\\n\', escape=False)\nresponse.files.insert(0,URL(r=request,c=\'static\',f=\'jquery.js\'))\nresponse.files.insert(1,URL(r=request,c=\'static\',f=\'calendar.css\'))\nresponse.files.insert(2,URL(r=request,c=\'static\',f=\'calendar.js\'))\nfor _item in response.meta or []:\n    response.write(\'\\n     <meta name="\', escape=False)\n    response.write(_item)\n    response.write(\'" content="\', escape=False)\n    response.write(response.meta[_item])\n    response.write(\'" />\', escape=False)\n    pass\nfor _k,_file in enumerate(response.files or []):\n    if _file in response.files[:_k]:\n        continue\n    elif _file[-4:].lower()==\'.css\':\n        response.write(\'\\n     <link href="\', escape=False)\n        response.write(_file)\n        response.write(\'" rel="stylesheet" type="text/css" charset="utf-8" />\', escape=False)\n    elif _file[-3:].lower()==\'.js\':\n        response.write(\'\\n     <script src="\', escape=False)\n        response.write(_file)\n        response.write(\'" type="text/javascript"></script>\', escape=False)\n        pass\n    pass\nresponse.write(\'\\n<script type="text/javascript"><!--\\nfunction popup(url) {\\n  newwindow=window.open(url,\\\'name\\\',\\\'height=400,width=600\\\');\\n  if (window.focus) newwindow.focus();\\n  return false;\\n}\\nfunction collapse(id) { jQuery(\\\'#\\\'+id).slideToggle(); }\\nfunction fade(id,value) { if(value>0) jQuery(\\\'#\\\'+id).hide().fadeIn(\\\'slow\\\'); else jQuery(\\\'#\\\'+id).show().fadeOut(\\\'slow\\\'); }\\nfunction ajax(u,s,t) {\\n  var query="";\\n  for(i=0; i<s.length; i++) { \\n     if(i>0) query=query+"&";\\n     query=query+encodeURIComponent(s[i])+"="+encodeURIComponent(document.getElementById(s[i]).value);\\n  }\\n  jQuery.ajax({type: "POST", url: u, data: query, success: function(msg) { if(t==\\\':eval\\\') eval(msg); else document.getElementById(t).innerHTML=msg; } });  \\n}\\nString.prototype.reverse = function () { return this.split(\\\'\\\').reverse().join(\\\'\\\');};\\nfunction web2py_ajax_init() {\\n  jQuery(\\\'.hidden\\\').hide();\\n  jQuery(\\\'.error\\\').hide().slideDown(\\\'slow\\\');\\n  jQuery(\\\'.flash\\\').click(function() { jQuery(this).fadeOut(\\\'slow\\\'); return false; });\\n  jQuery(\\\'input.string\\\').attr(\\\'size\\\',50);\\n  jQuery(\\\'textarea.text\\\').attr(\\\'cols\\\',50).attr(\\\'rows\\\',10);\\n  jQuery(\\\'input.integer\\\').keyup(function(){this.value=this.value.reverse().replace(/[^0-9\\\\-]|\\\\-(?=.)/g,\\\'\\\').reverse();});\\n  jQuery(\\\'input.double\\\').keyup(function(){this.value=this.value.reverse().replace(/[^0-9\\\\-\\\\.]|[\\\\-](?=.)|[\\\\.](?=[0-9]*[\\\\.])/g,\\\'\\\').reverse();});\\n  jQuery(\\\'input.delete\\\').attr(\\\'onclick\\\',\\\'if(this.checked) if(!confirm("\', escape=False)\nresponse.write(T(\'Sure you want to delete this object?\'))\nresponse.write(\'")) this.checked=false;\\\');\\n  try {jQuery("input.date").focus( function() {Calendar.setup({\\n     inputField:this.id, ifFormat:"\', escape=False)\nresponse.write(T(\'%Y-%m-%d\'))\nresponse.write(\'", showsTime:false\\n  }); }); } catch(e) {};\\n  try { jQuery("input.datetime").focus( function() {Calendar.setup({\\n     inputField:this.id, ifFormat:"\', escape=False)\nresponse.write(T(\'%Y-%m-%d %H:%M:%S\'))\nresponse.write(\'", showsTime: true,timeFormat: "24"\\n  }); }); } catch(e) {};\\n  try { jQuery("input.time").clockpick({\\n      starthour:0, endhour:23, showminutes:true, military:true\\n  }); } catch(e) {};\\n};\\njQuery(document).ready(function(){\\n   jQuery(\\\'.flash\\\').hide();\\n   if(jQuery(\\\'.flash\\\').html()!=\\\'\\\') jQuery(\\\'.flash\\\').slideDown(\\\'slow\\\');\\n   web2py_ajax_init();});\\n\\nfunction web2py_trap_form(action,target) {\\n   jQuery(\\\'#\\\'+target+\\\' form\\\').each(function(i){\\n      var form=jQuery(this);\\n      jQuery(\\\'input[type="submit"]\\\',this).click(function(){\\n         jQuery(\\\'.flash\\\').hide().html(\\\'\\\');\\n         web2py_ajax_page(\\\'post\\\',action,form.serialize(),target);\\n         return false;\\n      });\\n   });\\n}\\nfunction web2py_ajax_page(method,action,data,target) {\\n  jQuery.ajax({\\\'type\\\':method,\\\'url\\\':action,\\\'data\\\':data,\\n    \\\'beforeSend\\\':function(xhr){\\n      xhr.setRequestHeader(\\\'web2py-component-location\\\',document.location);\\n      xhr.setRequestHeader(\\\'web2py-component-element\\\',target);},\\n    \\\'complete\\\':function(xhr,text){\\n      command=xhr.getResponseHeader(\\\'web2py-component-command\\\');\\n      if(command) eval(command);\\n      flash=xhr.getResponseHeader(\\\'web2py-component-flash\\\');\\n      if(flash) jQuery(\\\'.flash\\\').html(flash).slideDown();\\n      },\\n    \\\'success\\\': function(text) {\\n      jQuery(\\\'#\\\'+target).html(text);\\n      web2py_trap_form(action,target);\\n      web2py_ajax_init();\\n      }\\n    });\\n}\\nfunction web2py_component(action,target) {\\n    jQuery(document).ready(function(){ web2py_ajax_page(\\\'get\\\',action,null,target); });\\n}\\n//--></script>\\n\', escape=False)\nresponse.write(page.render())\nresponse.write(\'\\n\', escape=False)\nresponse.write(\'\\n</head>\\n<body>\\n<div class="header">\\n\\t<div class="outernav">\\n\\t\\t<div class="nav">\\n\\t\\t\\t<div class="innernav">\\n\\t\\t\\t  \', escape=False)\nresponse.write(MENU(response.menu))\nresponse.write(\'\\n\\t\\t\\t</div>\\n\\t\\t</div>\\n\\t</div>\\n\\t\\t\\n\\t<div class="clear"></div>\\n\\t\\n\\t<div class="title">\\n\\t\\t<div class="innertitle">\\n\\t\\t\\t\\n\\t\\t\\t<!-- TITLE -->\\n\\t\\t\\t\', escape=False)\nresponse.write(IMG(_src=URL(r=request,c=\'static/images\',f=\'augmi_logo.bmp\'),_alt="Augmi",_style="border: 0px; height: 100px; width: 156px; margin-left: 30px; margin-top: 0px;"))\nresponse.write(\'\\n\\n\\t\\t\\t<!-- END TITLE -->\\n\\t\\t\\t\\n\\t\\t\\t\\n\\t\\t</div>\\n\\n\\t</div>\\n</div>\\n<div id="wrap">\\n\\t<div class="pagewrapper">\\n\\t\\t<div class="innerpagewrapper">\\n\\t\\t\\t<div class="page">\\n\\t\\t\\t\\t<div class="content">\\n\\t\\t\\t\\t  <div class="flash">\', escape=False)\nresponse.write(response.flash or \'\')\nresponse.write(\'</div>\\n\\t\\t\\t\\t  \', escape=False)\nresponse.write(\'\\n<script type="text/javascript" src="\', escape=False)\nresponse.write(URL(r=request,c=\'static\',f=\'jquery.corner.js\'))\nresponse.write(\'"></script>\\n<script type="text/javascript" src="\', escape=False)\nresponse.write(URL(r=request,c=\'static\',f=\'jquery.ui.core.js\'))\nresponse.write(\'"></script>\\n<script type="text/javascript" src="\', escape=False)\nresponse.write(URL(r=request,c=\'static\',f=\'jquery.marquee.js\'))\nresponse.write(\'"></script>\\n\\n<script type="text/javascript">\\nif($.browser.msie==0){\\n$(\\\'#rounded\\\').corner();\\n}\\n\\n$(document).ready(function()\\n{\\n\\n\', escape=False)\nfor b in beats:\n    response.write("\\n\\n$(\'#msemp_", escape=False)\n    response.write(b.uuid)\n    response.write("\').click(function() {\\n$(\'#q_user_name\').val(\'", escape=False)\n    response.write(b.user_name)\n    response.write("\');\\n$(\'#q_user_id\').val(\'", escape=False)\n    response.write(b.user_id)\n    response.write(\'\\\');\\n$(\\\'#dialog\\\').dialog({"autoOpen": "false", "width": "350px"});\\n$(\\\'#dialog\\\').dialog(\\\'open\\\'); return false;\\n}); \\n\\nif($.browser.msie==0){\\n$(\\\'#mstabsl_\', escape=False)\n    response.write(b.uuid)\n    response.write("\').corner();\\n$(\'#mstabsr_", escape=False)\n    response.write(b.uuid)\n    response.write("\').corner();\\n$(\'#msemp_", escape=False)\n    response.write(b.uuid)\n    response.write("\').corner();\\n}\\n$(\'div.msmessage_", escape=False)\n    response.write(b.uuid)\n    response.write(\' marquee\\\').marquee()\\n $("div.msmessage_\', escape=False)\n    response.write(b.uuid)\n    response.write(\'").click(function () {\\n       $(\\\'div.msfullmessage_\', escape=False)\n    response.write(b.uuid)\n    response.write(\'\\\').show();\\n\\n\\t     });\\n  $("div.msfullmessage_\', escape=False)\n    response.write(b.uuid)\n    response.write(\'").mouseleave(function() {\\n         $(\\\'div.msfullmessage_\', escape=False)\n    response.write(b.uuid)\n    response.write(\'\\\').hide();\\n\\n   });\\n\\n$("#mstabsl_\', escape=False)\n    response.write(b.uuid)\n    response.write(\'").click(function(){\\nif($.browser.msie==0){\\n  $(".mstabs1_\', escape=False)\n    response.write(b.uuid)\n    response.write(\'").animate({"width": "252px","left": "108px","z-index": "5"}, "fast");\\n  $(".msmbeats_\', escape=False)\n    response.write(b.uuid)\n    response.write(\'").animate({"width": "0px","z-index": "1","opacity": "0"}, "fast");\\n}\\nif($.browser.msie){\\n $(".mstabs1_\', escape=False)\n    response.write(b.uuid)\n    response.write(\'").animate({"width": "252px","left": "108px","z-index": "5"}, "fast");\\n  $(".msmbeats_\', escape=False)\n    response.write(b.uuid)\n    response.write(\'").animate({"width": "0px","z-index": "1","opacity": "0"}, "fast");\\n}\\n\\nif($.browser.msie==0){\\n  $(".mstabs2_\', escape=False)\n    response.write(b.uuid)\n    response.write(\'").animate({"z-index": "4","padding": "1px","left": "328px","width": "60px","opacity": "1","border": "1px solid white"}, "fast");\\n}\\nif($.browser.msie){\\n   $(".mstabs2_\', escape=False)\n    response.write(b.uuid)\n    response.write(\'").animate({"z-index": "4","padding": "1px","left": "328px","width": "60px","opacity": "1","border": "1px solid white"}, "fast");\\n}\\n\\n\\n\\nif($.browser.msie){\\n$(".mstabs2_\', escape=False)\n    response.write(b.uuid)\n    response.write(\'").css({"border": "1px solid white"});\\n}\\n});\\n\\n$("#mstabsr_\', escape=False)\n    response.write(b.uuid)\n    response.write(\'").click(function(){\\n  $(".mstabs1_\', escape=False)\n    response.write(b.uuid)\n    response.write(\'").animate({"width": "60px","left": "330px","z-index": "1"}, "fast");\\n  $(".msmbeats_\', escape=False)\n    response.write(b.uuid)\n    response.write(\'").animate({"width": "252px","z-index": "3","opacity": "3"}, "fast");\\n  $(".mstabs2_\', escape=False)\n    response.write(b.uuid)\n    response.write(\'").animate({"z-index": "1","padding": "0px","border": "0px","left": "108px","width": "0px","opacity": "0"}, "fast");\\n\\n});\\n\\t\', escape=False)\n    pass\nresponse.write(\'\\n\\n});\\n</script>\\n<style type="text/css">\\n\', escape=False)\nfor b in beats:\n    response.write(\'\\n\\ndiv.microsite_dialog_\', escape=False)\n    response.write(b.uuid)\n    response.write(\'{\\n\\tz-index: 1;\\n\\tposition: relative;\\n\\tborder: 3px; \\n\\tleft: 0px;\\n\\ttop: 0px;\\n\\tbackground-color: #989898 ;\\n\\twidth: 518px;\\n\\theight: 78px;\\n\\tpadding: 0px 0px 0px 0px;\\n}\\n\\ndiv.microsite_\', escape=False)\n    response.write(b.uuid)\n    response.write(\'{\\n\\tz-index: 1;\\n\\tposition: relative;\\n\\tborder: 3px; \\n\\tleft: 0px;\\n\\ttop: 0px;\\n\\tbackground-color: #989898 ;\\n\\twidth: 518px;\\n\\theight: 78px;\\n\\tpadding: 0px 0px 0px 0px;\\n}\\n\\ndiv.msmessage_\', escape=False)\n    response.write(b.uuid)\n    response.write(\'{\\n\\tfloat: left;\\n\\tposition: absolute;\\n\\tleft: 105px;\\n\\ttop: 4px;\\n\\tbackground-color: black;\\n\\twidth: 406px;\\n\\theight: 18px;\\n\\tpadding: 1px\\n}\\n\\ndiv.msfullmessage_\', escape=False)\n    response.write(b.uuid)\n    response.write(\'{\\n\\tz-index: 5;\\n\\tdisplay: none;\\n\\tfloat: left;\\n\\tposition: absolute;\\n\\tleft: 105px;\\n\\ttop: 4px;\\n\\tbackground-color: black;\\n\\twidth: 406px;\\n\\theight: 68px;\\n\\tpadding: 1px\\n}\\n\\ndiv.msmbeats_\', escape=False)\n    response.write(b.uuid)\n    response.write(\'{\\n\\tz-index: 4;\\n\\tfloat: left;\\n\\tposition: absolute;\\n\\tleft: 108px;\\n\\ttop: 28px;\\n\\tbackground-color: #b2b2b2;\\n\\tborder: 1px solid white;\\n\\twidth: 252px;\\n\\theight: 42px;\\n\\tpadding: 1px\\n}\\n\\ndiv.mstabs1_\', escape=False)\n    response.write(b.uuid)\n    response.write(\'{\\n\\tz-index: 3;\\n\\tfloat: left;\\n\\tposition: absolute;\\n\\tleft: 330px;\\n\\ttop: 28px;\\n\\tbackground-color: #4c4c4c;\\n\\tborder: 1px solid white;\\n\\twidth: 60px;\\n\\theight: 42px;\\n\\tpadding: 1px\\n}\\n\\ndiv.mstabs2_\', escape=False)\n    response.write(b.uuid)\n    response.write(\'{\\n\\tz-index: 1;\\n\\tfloat: left;\\n\\tposition: relative;\\n\\tleft: 108px;\\n\\ttop: 28px;\\n\\tbackground-color: #b2b2b2;\\n\\tborder: 0px solid white;\\n\\twidth: 0px;\\n\\theight: 42px;\\n\\tpadding: 0px;\\n\\topacity: 0;\\n}\\n\\ndiv.mstabs3_\', escape=False)\n    response.write(b.uuid)\n    response.write(\'{\\n\\tz-index: 1;\\n\\tfloat: left;\\n\\tposition: relative;\\n\\tleft: -50px;\\n\\ttop: 8px;\\n\\tbackground-color: #b2b2b2;\\n\\tborder: 0px solid white;\\n\\twidth: 50px;\\n\\theight: 42px;\\n\\tpadding: 1px\\n}\\n\\ndiv.mstabsl_\', escape=False)\n    response.write(b.uuid)\n    response.write(\'{\\n\\tfloat: left;\\n\\tposition: absolute;\\n\\tleft: 400px;\\n\\ttop: 28px;\\n\\tbackground-color: #4c4c4c;\\n\\tborder: 1px solid grey;\\n\\twidth: 26px;\\n\\theight: 42px;\\n\\tpadding: 1px;\\n\\tmargin-left: 0px; \\n\\tmargin-top: 0px;\\n}\\n\\ndiv.mstabsr_\', escape=False)\n    response.write(b.uuid)\n    response.write(\'{\\n\\tfloat: left;\\n\\tposition: absolute;\\n\\tleft: 433px;\\n\\ttop: 28px;\\n\\tbackground-color: #4c4c4c;\\n\\tborder: 1px solid grey;\\n\\twidth: 26px;\\n\\theight: 42px;\\n\\tpadding: 1px;\\n\\tmargin-left: 0px; \\n\\tmargin-top: 0px;\\n}\\n\\ndiv.msemp_\', escape=False)\n    response.write(b.uuid)\n    response.write(\'{\\n\\tfloat: left;\\n\\tposition: absolute;\\n\\tleft: 466px;\\n\\ttop: 28px;\\n\\tbackground-color: #b2b2b2;\\n\\tborder: 1px solid grey;\\n\\twidth: 42px;\\n\\theight: 42px;\\n\\tpadding: 1px\\n}\\n\', escape=False)\n    pass\nresponse.write(\'\\n</style>\\n<h5>Latest Mind Beats:</h5>\\n\', escape=False)\nfor b in beats:\n    response.write(\'\\n<div class="tablerow">\\n<div class="microsite_\', escape=False)\n    response.write(b.uuid)\n    response.write(\'" id="rounded">\\n<div class="mslocation" id="rounded">\', escape=False)\n    response.write(b.Location)\n    response.write(\'</div>\\n<div class="msmessage_\', escape=False)\n    response.write(b.uuid)\n    response.write(\'" id="rounded"><marquee behavior="scroll" scrollamount="1" direction="left" width="405"><h3 style="margin-left: 0px; color: white; font-size: 14px">\', escape=False)\n    response.write(b.user_name)\n    response.write(\' (\', escape=False)\n    response.write(b.provider)\n    response.write(\') at \', escape=False)\n    response.write(b.timestamp)\n    response.write(\'  \', escape=False)\n    response.write(b.Message)\n    response.write(\'</h3></marquee></div>\\n<div class="msfullmessage_\', escape=False)\n    response.write(b.uuid)\n    response.write(\'" id="rounded"><h3 style="margin-left: 0px; color: white; font-size: 14px">\', escape=False)\n    response.write(b.user_name)\n    response.write(\' (\', escape=False)\n    response.write(b.provider)\n    response.write(\') at \', escape=False)\n    response.write(b.timestamp)\n    response.write(\'  \', escape=False)\n    response.write(b.Message)\n    response.write(\'</h3></div>\\n<div class="msmypic" id="rounded">\', escape=False)\n    response.write(IMG(_src=b.pic_url,_alt=\'?\',_style="margin-left: 2px; margin-top: 2px; width: 38px; height: 38px;"))\n    response.write(\'</div>\\n<div class="msstress" id="rounded"><img id="rounded" src="\', escape=False)\n    response.write(URL(r=request,c=\'static/images\',f=\'clear.png\'))\n    response.write(\'" style="margin-left: 0px;  margin-top: 0px; height: 42px; width: 42px; background-image: url(\\\'/init/static/images/throbber3.gif\\\'); position: relative; background-position: \', escape=False)\n    response.write(b.Stress_html)\n    response.write(\'  0;" TITLE="My Stress Level is \', escape=False)\n    response.write(b.Stress)\n    response.write(\'"></div>\\n<div class="msmbeats_\', escape=False)\n    response.write(b.uuid)\n    response.write(\'" id="rounded"><img src="\', escape=False)\n    response.write(URL(r=request,c=\'static/images\',f=\'clear.png\'))\n    response.write(\'" style="border: 0px; height: 42px; width: 50px; background-image: url(\\\'/init/static/images/mbeat5.gif\\\') ;  margin-left: 1px; margin-right: -1px; margin-top: 0px;  background-position: \', escape=False)\n    response.write(b.Mood_html)\n    response.write(\' 0;" TITLE="My Mood Level is \', escape=False)\n    response.write(b.Mood)\n    response.write(\'"><img src="\', escape=False)\n    response.write(URL(r=request,c=\'static/images\',f=\'clear.png\'))\n    response.write(\'" style="border: 0px; height: 42px; width: 50px; background-image: url(\\\'/init/static/images/mbeat5.gif\\\') ;  margin-left: 1px; margin-right: -1px;  margin-top: 0px; background-position: \', escape=False)\n    response.write(b.Focus_html)\n    response.write(\' 0;" TITLE="My Focus Level is \', escape=False)\n    response.write(b.Focus)\n    response.write(\'"><img src="\', escape=False)\n    response.write(URL(r=request,c=\'static/images\',f=\'clear.png\'))\n    response.write(\'" style="border: 0px; height: 42px; width: 50px; background-image: url(\\\'/init/static/images/mbeat5.gif\\\') ;  margin-left: 1px; margin-right: -1px;  margin-top: 0px; background-position: \', escape=False)\n    response.write(b.Energy_html)\n    response.write(\' 0;" TITLE="My Energy Level is \', escape=False)\n    response.write(b.Energy)\n    response.write(\'"><img src="\', escape=False)\n    response.write(URL(r=request,c=\'static/images\',f=\'clear.png\'))\n    response.write(\'" style="border: 0px; height: 42px; width: 50px; background-image: url(\\\'/init/static/images/mbeat5.gif\\\') ;  margin-left: 1px; margin-right: -1px;  margin-top: 0px; position: relative; background-position: \', escape=False)\n    response.write(b.UTD_html)\n    response.write(\' 0;" TITLE="My \\\'up to date\\\' Level is \', escape=False)\n    response.write(b.UTD)\n    response.write(\'"><img src="\', escape=False)\n    response.write(URL(r=request,c=\'static/images\',f=\'clear.png\'))\n    response.write(\'" style="border: 0px; height: 42px; width: 50px; background-image: url(\\\'/init/static/images/mbeat5.gif\\\') ;  margin-left: 1px; margin-right: -1px;  margin-top: 0px;  background-position: \', escape=False)\n    response.write(b.Optimism_html)\n    response.write(\' 0;" TITLE="My Optimisim Level is \', escape=False)\n    response.write(b.Optimism)\n    response.write(\'"></div>\\n<div class="mstabs1_\', escape=False)\n    response.write(b.uuid)\n    response.write(\'" id="rounded"></div>\\n<div class="mstabs2_\', escape=False)\n    response.write(b.uuid)\n    response.write(\'" id="rounded"></div>\\n<div class="mstabsl_\', escape=False)\n    response.write(b.uuid)\n    response.write(\'" id="mstabsl_\', escape=False)\n    response.write(b.uuid)\n    response.write(\'"><</div>\\n<div class="mstabsr_\', escape=False)\n    response.write(b.uuid)\n    response.write(\'" id="mstabsr_\', escape=False)\n    response.write(b.uuid)\n    response.write(\'">></div>\\n<div class="msemp_\', escape=False)\n    response.write(b.uuid)\n    response.write(\'" id="rounded" >\\n<a href="#" id="msemp_\', escape=False)\n    response.write(b.uuid)\n    response.write(\'"><img  src="\', escape=False)\n    response.write(URL(r=request,c=\'static/images\',f=\'emp.gif\'))\n    response.write(\'" style="height: 38px; width: 20px; margin-left: 10px; margin-top: 1px"  TITLE="Send Empathy"></a></div>\\n</div>\\n</div>\\n\\t\', escape=False)\n    pass\nresponse.write(\'\\n\\t\\n\', escape=False)\ndef give_emp1():\n    return DIV(\nform.custom.begin,\nINPUT(_style="color:black; width: 20px; height: 15px;",_type="hidden", _name="q_user_name", _id="q_user_name",_class="string"),\nINPUT(_style="color:black; width: 20px; height: 15px;",_type="hidden", _name="q_user_id", _id="q_user_id",_class="string"),\nDIV(form.custom.widget.q),\nDIV(form.custom.submit),\nform.custom.end\n)\npass\nresponse.write(\'\\n\\n<div id="dialog" class="dialog" style="display: none;" title="Send Empathy To This Person">\\n\', escape=False)\nresponse.write(give_emp1())\nresponse.write(\'\\n\\n\\n</div>\\n\\n\', escape=False)\nresponse.write(\'\\n\\t\\t\\t\\t\\t\\n\\t\\t\\t\\t</div>\\n\\t\\t\\t\\t\\n\\t\\t\\t\\t<div class="sidebar">\\t\\n\\t\\t\\t\\t\\t\\t\\t\\t\\t\\t\\t\\t\\t\\t\\t\\t\\t\\t\\t\\t\\t\\t\\t\\t\\t\\n\\n\\t\\t\\t\\t\\t<!-- SIDEBAR -->\\t\\t\\n\\t\\t\\t\\t\\t<h4>What is Augmi?</h4>\\n\\t\\t\\t\\t\\t<p>A web application providing\\n\\t\\t\\t\\t\\tinnovative ways to interconnect.<br>\\n\\t\\t\\t\\t\\tAugmi users can publish enhanced status updates.<br>\\n\\t\\t\\t\\t\\tThis Alpha release is just to test the idea and get user feedback. Future releases will\\n\\t\\t\\t\\t\\tadd privacy levels, and many other features.\\n\\t\\t\\t\\t\\t\\n\\t\\t\\t\\t\\t</p>\\n\\n\\n\\t\\t\\t\\t\\t<h4>Links</h4>\\n\\t\\t\\t\\t\\t<h>       </h>\\n\\t\\t\\t\\t\\t<div class="addthis_toolbox addthis_default_style">\\n<a href="http://www.addthis.com/bookmark.php?v=250&amp;pub=xa-4b03fc3d330\\nf9732" class="addthis_button_compact">Share</a>\\n<span class="addthis_separator">|</span>\\n<a class="addthis_button_facebook"></a>\\n<a class="addthis_button_myspace"></a>\\n<a class="addthis_button_google"></a>\\n<a class="addthis_button_twitter"></a>\\n</div>\\n<script type="text/javascript"\\nsrc="http://s7.addthis.com/js/250/addthis_widget.js#pub=xa-4b03fc3d330f9732"></script>\\n\\t\\t\\t\\t\\t<!-- SIDEBAR -->\\n\\t\\t\\t\\n\\t\\t\\t\\t</div>\\n\\t\\t\\t\\t<h>        </h>\\n\\t\\t\\t\\t<div class="footer">\\n\\t\\t\\t\\t\\t<p><a href="http://validator.w3.org/check/referer" title="valid XHTML">XHTML</a> | <a href="http://jigsaw.w3.org/css-validator/check/referer" title="valid CSS">CSS</a> &nbsp;&nbsp; | &copy; Augmi. 2009 | <a href="http://www.web2py.com">Web2py</a> | <a href="http://www.jQuery.com">jQuery</a></p> \\n\\t\\t\\t\\t</div>\\n\\t\\t\\t</div>\\n\\t\\t</div>\\n\\t</div>\\n</div>\\n</body>\\n</html>\\n\', escape=False)'
p6
sS'snapshot'
p7
(dp8
S'exception'
p9
(dp10
S'__hash__'
p11
S"<method-wrapper '__hash__' of exceptions.NameError object at 0x022E1DF0>"
p12
sS'__setattr__'
p13
S"<method-wrapper '__setattr__' of exceptions.NameError object at 0x022E1DF0>"
p14
sS'__reduce_ex__'
p15
S'<built-in method __reduce_ex__ of exceptions.NameError object at 0x022E1DF0>'
p16
sS'__getslice__'
p17
S"<method-wrapper '__getslice__' of exceptions.NameError object at 0x022E1DF0>"
p18
sS'__getitem__'
p19
S"<method-wrapper '__getitem__' of exceptions.NameError object at 0x022E1DF0>"
p20
sS'__setstate__'
p21
S'<built-in method __setstate__ of exceptions.NameError object at 0x022E1DF0>'
p22
sS'__reduce__'
p23
S'<built-in method __reduce__ of exceptions.NameError object at 0x022E1DF0>'
p24
sS'__str__'
p25
S"<method-wrapper '__str__' of exceptions.NameError object at 0x022E1DF0>"
p26
sS'args'
p27
S'("name \'page\' is not defined",)'
p28
sS'__getattribute__'
p29
S"<method-wrapper '__getattribute__' of exceptions.NameError object at 0x022E1DF0>"
p30
sS'__class__'
p31
S"<type 'exceptions.NameError'>"
p32
sS'__delattr__'
p33
S"<method-wrapper '__delattr__' of exceptions.NameError object at 0x022E1DF0>"
p34
sS'__repr__'
p35
S"<method-wrapper '__repr__' of exceptions.NameError object at 0x022E1DF0>"
p36
sS'__dict__'
p37
S'{}'
p38
sS'__doc__'
p39
S"'Name not found globally.'"
p40
sS'__init__'
p41
S"<method-wrapper '__init__' of exceptions.NameError object at 0x022E1DF0>"
p42
sS'__new__'
p43
S'<built-in method __new__ of type object at 0x1E1CD8D8>'
p44
ssS'evalue'
p45
S"name 'page' is not defined"
p46
sS'request'
p47
(dp48
S'function'
p49
S"'index'"
p50
sS'body'
p51
S'<cStringIO.StringO object at 0x022E2E40>'
p52
sS'wsgi'
p53
S"<Storage {'start_response': <function <lambda> a...ING': 'gzip,deflate', 'HTTP_KEEP_ALIVE': '115'}}>"
p54
sS'extension'
p55
S"'html'"
p56
sS'vars'
p57
S'<Storage {}>'
p58
sS'cid'
p59
S'None'
p60
sS'url'
p61
S'<gluon.html.XML object at 0x022E2270>'
p62
sg27
S'[]'
p63
sS'controller'
p64
S"'default'"
p65
sS'cookies'
p66
S"<SimpleCookie: _csuid='X4b88544ae5e5c07c' sessio...'127-0-0-1-920f3cd9-3e10-42b3-adf8-72b51aecbdc6'>"
p67
sS'application'
p68
S"'init'"
p69
sS'ajax'
p70
S'False'
p71
sS'client'
p72
S"'127.0.0.1'"
p73
sS'env'
p74
S"<Storage {'http_user_agent': 'Mozilla/5.0 (Windo...': '', 'wsgi_run_once': False, 'path_info': '/'}>"
p75
sS'raw_args'
p76
S'None'
p77
sS'get_vars'
p78
S'<Storage {}>'
p79
sS'folder'
p80
S"r'C:\\APPS\\augmi-a\\applications\\init/'"
p81
sS'now'
p82
S'datetime.datetime(2010, 9, 19, 22, 51, 55, 812000)'
p83
sS'post_vars'
p84
S'<Storage {}>'
p85
ssS'frames'
p86
(lp87
(dp88
S'file'
p89
S'C:\\APPS\\augmi-a\\gluon\\restricted.py'
p90
sS'dump'
p91
(dp92
S'environment'
p93
S"{'A': <class 'gluon.html.A'>, 'Auth': <class 'gluon.tools.Auth'>, 'B': <class 'gluon.html.B'>, 'BEAUTIFY': <class 'gluon.html.BEAUTIFY'>, 'BODY': <class 'gluon.html.BODY'>, 'BR': <class 'gluon.html.BR'>, 'CENTER': <class 'gluon.html.CENTER'>, 'CLEANUP': <class 'gluon.validators.CLEANUP'>, 'CODE': <class 'gluon.html.CODE'>, 'CRYPT': <class 'gluon.validators.CRYPT'>, ...}"
p94
sS'ccode'
p95
S'<code object <module> at 01FF45C0, file "C:\\APPS...lications\\init/views\\default/index.html", line 1>'
p96
ssS'lnum'
p97
I188
sS'lines'
p98
(dp99
I192
S'        # XXX Show exception in Wing IDE if running in debugger'
p100
sI183
S'        if type(code) == types.CodeType:'
p101
sI184
S'            ccode = code'
p102
sI185
S'        else:'
p103
sI186
S'            ccode = compile2(code,layer)'
p104
sI187
S''
sI188
S'        exec ccode in environment'
p105
sI189
S'    except HTTP:'
p106
sI190
S'        raise'
p107
sI191
S'    except Exception:'
p108
ssS'call'
p109
S'(code=\'response.write(\\\'<!DOCTYPE html PUBLIC "-//W3C//D.../div>\\\\n</div>\\\\n</body>\\\\n</html>\\\\n\\\', escape=False)\', environment={\'A\': <class \'gluon.html.A\'>, \'Auth\': <class \'gluon.tools.Auth\'>, \'B\': <class \'gluon.html.B\'>, \'BEAUTIFY\': <class \'gluon.html.BEAUTIFY\'>, \'BODY\': <class \'gluon.html.BODY\'>, \'BR\': <class \'gluon.html.BR\'>, \'CENTER\': <class \'gluon.html.CENTER\'>, \'CLEANUP\': <class \'gluon.validators.CLEANUP\'>, \'CODE\': <class \'gluon.html.CODE\'>, \'CRYPT\': <class \'gluon.validators.CRYPT\'>, ...}, layer=r\'C:\\APPS\\augmi-a\\applications\\init/views\\default/index.html\')'
p110
sS'func'
p111
S'restricted'
p112
sa(dp113
g89
S'C:\\APPS\\augmi-a\\applications\\init\\views\\default\\index.html'
p114
sg91
(dp115
S'this'
p116
S'undefined'
p117
sS'event'
p118
g117
ssg97
I56
sg98
(dp119
I64
S"response.write('</div>\\n\\t\\t\\t\\t  ', escape=False)"
p120
sI65
S'response.write(\'\\n<script type="text/javascript" src="\', escape=False)'
p121
sI66
S"response.write(URL(r=request,c='static',f='jquery.corner.js'))"
p122
sI47
S'        pass'
p123
sI48
S'    pass'
p124
sI49
S'response.write(\'\\n<script type="text/javascript"><!--\\nfunction popup(url) {\\n  newwindow=window.open(url,\\\'name\\\',\\\'height=400,width=600\\\');\\n  if (window.focus) newwindow.focus();\\n  return false;\\n}\\nfunction collapse(id) { jQuery(\\\'#\\\'+id).slideToggle(); }\\nfunction fade(id,value) { if(value>0) jQuery(\\\'#\\\'+id).hide().fadeIn(\\\'slow\\\'); else jQuery(\\\'#\\\'+id).show().fadeOut(\\\'slow\\\'); }\\nfunction ajax(u,s,t) {\\n  var query="";\\n  for(i=0; i<s.length; i++) { \\n     if(i>0) query=query+"&";\\n     query=query+encodeURIComponent(s[i])+"="+encodeURIComponent(document.getElementById(s[i]).value);\\n  }\\n  jQuery.ajax({type: "POST", url: u, data: query, success: function(msg) { if(t==\\\':eval\\\') eval(msg); else document.getElementById(t).innerHTML=msg; } });  \\n}\\nString.prototype.reverse = function () { return this.split(\\\'\\\').reverse().join(\\\'\\\');};\\nfunction web2py_ajax_init() {\\n  jQuery(\\\'.hidden\\\').hide();\\n  jQuery(\\\'.error\\\').hide().slideDown(\\\'slow\\\');\\n  jQuery(\\\'.flash\\\').click(function() { jQuery(this).fadeOut(\\\'slow\\\'); return false; });\\n  jQuery(\\\'input.string\\\').attr(\\\'size\\\',50);\\n  jQuery(\\\'textarea.text\\\').attr(\\\'cols\\\',50).attr(\\\'rows\\\',10);\\n  jQuery(\\\'input.integer\\\').keyup(function(){this.value=this.value.reverse().replace(/[^0-9\\\\-]|\\\\-(?=.)/g,\\\'\\\').reverse();});\\n  jQuery(\\\'input.double\\\').keyup(function(){this.value=this.value.reverse().replace(/[^0-9\\\\-\\\\.]|[\\\\-](?=.)|[\\\\.](?=[0-9]*[\\\\.])/g,\\\'\\\').reverse();});\\n  jQuery(\\\'input.delete\\\').attr(\\\'onclick\\\',\\\'if(this.checked) if(!confirm("\', escape=False)'
p125
sI50
S"response.write(T('Sure you want to delete this object?'))"
p126
sI51
S'response.write(\'")) this.checked=false;\\\');\\n  try {jQuery("input.date").focus( function() {Calendar.setup({\\n     inputField:this.id, ifFormat:"\', escape=False)'
p127
sI52
S"response.write(T('%Y-%m-%d'))"
p128
sI53
S'response.write(\'", showsTime:false\\n  }); }); } catch(e) {};\\n  try { jQuery("input.datetime").focus( function() {Calendar.setup({\\n     inputField:this.id, ifFormat:"\', escape=False)'
p129
sI54
S"response.write(T('%Y-%m-%d %H:%M:%S'))"
p130
sI55
S'response.write(\'", showsTime: true,timeFormat: "24"\\n  }); }); } catch(e) {};\\n  try { jQuery("input.time").clockpick({\\n      starthour:0, endhour:23, showminutes:true, military:true\\n  }); } catch(e) {};\\n};\\njQuery(document).ready(function(){\\n   jQuery(\\\'.flash\\\').hide();\\n   if(jQuery(\\\'.flash\\\').html()!=\\\'\\\') jQuery(\\\'.flash\\\').slideDown(\\\'slow\\\');\\n   web2py_ajax_init();});\\n\\nfunction web2py_trap_form(action,target) {\\n   jQuery(\\\'#\\\'+target+\\\' form\\\').each(function(i){\\n      var form=jQuery(this);\\n      jQuery(\\\'input[type="submit"]\\\',this).click(function(){\\n         jQuery(\\\'.flash\\\').hide().html(\\\'\\\');\\n         web2py_ajax_page(\\\'post\\\',action,form.serialize(),target);\\n         return false;\\n      });\\n   });\\n}\\nfunction web2py_ajax_page(method,action,data,target) {\\n  jQuery.ajax({\\\'type\\\':method,\\\'url\\\':action,\\\'data\\\':data,\\n    \\\'beforeSend\\\':function(xhr){\\n      xhr.setRequestHeader(\\\'web2py-component-location\\\',document.location);\\n      xhr.setRequestHeader(\\\'web2py-component-element\\\',target);},\\n    \\\'complete\\\':function(xhr,text){\\n      command=xhr.getResponseHeader(\\\'web2py-component-command\\\');\\n      if(command) eval(command);\\n      flash=xhr.getResponseHeader(\\\'web2py-component-flash\\\');\\n      if(flash) jQuery(\\\'.flash\\\').html(flash).slideDown();\\n      },\\n    \\\'success\\\': function(text) {\\n      jQuery(\\\'#\\\'+target).html(text);\\n      web2py_trap_form(action,target);\\n      web2py_ajax_init();\\n      }\\n    });\\n}\\nfunction web2py_component(action,target) {\\n    jQuery(document).ready(function(){ web2py_ajax_page(\\\'get\\\',action,null,target); });\\n}\\n//--></script>\\n\', escape=False)'
p131
sI56
S'response.write(page.render())'
p132
sI57
S"response.write('\\n', escape=False)"
p133
sI58
S'response.write(\'\\n</head>\\n<body>\\n<div class="header">\\n\\t<div class="outernav">\\n\\t\\t<div class="nav">\\n\\t\\t\\t<div class="innernav">\\n\\t\\t\\t  \', escape=False)'
p134
sI59
S'response.write(MENU(response.menu))'
p135
sI60
S'response.write(\'\\n\\t\\t\\t</div>\\n\\t\\t</div>\\n\\t</div>\\n\\t\\t\\n\\t<div class="clear"></div>\\n\\t\\n\\t<div class="title">\\n\\t\\t<div class="innertitle">\\n\\t\\t\\t\\n\\t\\t\\t<!-- TITLE -->\\n\\t\\t\\t\', escape=False)'
p136
sI61
S'response.write(IMG(_src=URL(r=request,c=\'static/images\',f=\'augmi_logo.bmp\'),_alt="Augmi",_style="border: 0px; height: 100px; width: 156px; margin-left: 30px; margin-top: 0px;"))'
p137
sI62
S'response.write(\'\\n\\n\\t\\t\\t<!-- END TITLE -->\\n\\t\\t\\t\\n\\t\\t\\t\\n\\t\\t</div>\\n\\n\\t</div>\\n</div>\\n<div id="wrap">\\n\\t<div class="pagewrapper">\\n\\t\\t<div class="innerpagewrapper">\\n\\t\\t\\t<div class="page">\\n\\t\\t\\t\\t<div class="content">\\n\\t\\t\\t\\t  <div class="flash">\', escape=False)'
p138
sI63
S"response.write(response.flash or '')"
p139
ssg109
S'()'
p140
sg111
S'<module>'
p141
sasS'pyver'
p142
S'Python 2.5.4: C:\\Python25\\python.exe'
p143
sS'session'
p144
(dp145
S'_formkey[no_table_create]'
p146
S"'36279987-b52a-42ab-bf29-1a74dffd02fd'"
p147
sS'auth'
p148
S'None'
p149
ssS'etype'
p150
S"<type 'exceptions.NameError'>"
p151
sS'date'
p152
S'Sun Sep 19 22:51:55 2010'
p153
sS'response'
p154
(dp155
S'_vars'
p156
S"{'beats': <gluon.sql.Rows object at 0x021FFDF0>, 'form': <gluon.sqlhtml.SQLFORM object at 0x0234BCB0>}"
p157
sg66
S"<SimpleCookie: session_id_init='127-0-0-1-88bb1ace-604b-4ec5-a682-60d1ca5b8b73'>"
p158
sS'subtitle'
p159
S"<lazyT 'customize me!'>"
p160
sS'meta'
p161
S'<Storage {}>'
p162
sS'_view_environment'
p163
S"{'A': <class 'gluon.html.A'>, 'Auth': <class 'gluon.tools.Auth'>, 'B': <class 'gluon.html.B'>, 'BEAUTIFY': <class 'gluon.html.BEAUTIFY'>, 'BODY': <class 'gluon.html.BODY'>, 'BR': <class 'gluon.html.BR'>, 'CENTER': <class 'gluon.html.CENTER'>, 'CLEANUP': <class 'gluon.validators.CLEANUP'>, 'CODE': <class 'gluon.html.CODE'>, 'CRYPT': <class 'gluon.validators.CRYPT'>, ...}"
p164
sS'files'
p165
S"[<gluon.html.XML object at 0x0234AFF0>, <gluon.html.XML object at 0x02411B70>, <gluon.html.XML object at 0x0234AD90>, 'http://ajax.googleapis.com/ajax/libs/jqueryui/1.7.2/jquery-ui.js', <gluon.html.XML object at 0x021FFE50>, <gluon.html.XML object at 0x021FF170>, <gluon.html.XML object at 0x021FF950>, <gluon.html.XML object at 0x0234AFD0>, <gluon.html.XML object at 0x0234AF50>]"
p166
sS'title'
p167
S"'init'"
p168
sS'_caller'
p169
S'<function <lambda> at 0x01FEDB70>'
p170
sS'flash'
p171
S"<lazyT 'Welcome to Augmi, Please Login to use features!'>"
p172
sS'_custom_commit'
p173
S'None'
p174
sS'session_filename'
p175
S"r'C:\\APPS\\augmi-a\\applications\\init\\sessions\\127-0-0-1-88bb1ace-604b-4ec5-a682-60d1ca5b8b73'"
p176
sS'menu_auth'
p177
S"[[<lazyT 'Login'>, False, <gluon.html.XML object at 0x021F18B0>, [[<lazyT 'Register'>, False, <gluon.html.XML object at 0x02411AB0>], [<lazyT 'Lost Password'>, False, <gluon.html.XML object at 0x024113F0>]]]]"
p178
sS'menu_edit'
p179
S"[[<lazyT 'Edit'>, False, <gluon.html.XML object at 0x021FB090>, [[<lazyT 'Controller'>, False, <gluon.html.XML object at 0x021FB110>], [<lazyT 'View'>, False, <gluon.html.XML object at 0x021FB970>], [<lazyT 'Layout'>, False, <gluon.html.XML object at 0x021FF390>], [<lazyT 'Stylesheet'>, False, <gluon.html.XML object at 0x021FFF30>], [<lazyT 'DB Model'>, False, <gluon.html.XML object at 0x021FFA70>], [<lazyT 'Menu Model'>, False, <gluon.html.XML object at 0x021FF990>], [<lazyT 'Database'>, False, <gluon.html.XML object at 0x021FF830>]]]]"
p180
sg51
S'<cStringIO.StringO object at 0x022E2FE0>'
p181
sS'session_id_name'
p182
S"'session_id_init'"
p183
sS'_custom_rollback'
p184
S'None'
p185
sS'session_new'
p186
S'True'
p187
sS'session_id'
p188
S"'127-0-0-1-88bb1ace-604b-4ec5-a682-60d1ca5b8b73'"
p189
sS'headers'
p190
S"<Storage {'Expires': 'Sun, 19 Sep 2010 21:51:55 ...he, must-revalidate, post-check=0, pre-check=0'}>"
p191
sS'status'
p192
S'200'
p193
sS'postprocessing'
p194
S'[]'
p195
sS'menu'
p196
S"[[<lazyT 'Home'>, False, <gluon.html.XML object at 0x024119F0>, []], ('My Augmi', False, <gluon.html.XML object at 0x02411090>), ('Login', False, <gluon.html.XML object at 0x021F18B0>), ('More?', False, <gluon.html.XML object at 0x02411FD0>)]"
p197
sS'view'
p198
S"'default/index.html'"
p199
ssS'locals'
p200
(dp201
S'Service'
p202
S'<class gluon.tools.Service at 0x0198B240>'
p203
sS'OBJECT'
p204
S"<class 'gluon.html.OBJECT'>"
p205
sS'_file'
p206
S'<gluon.html.XML object at 0x0234AF50>'
p207
sS'datetime'
p208
S"<module 'datetime' (built-in)>"
p209
sg144
S"<Storage {'_formkey[no_table_create]': '36279987-b52a-42ab-bf29-1a74dffd02fd', 'auth': None}>"
p210
sS'LINK'
p211
S"<class 'gluon.html.LINK'>"
p212
sS'BR'
p213
S"<class 'gluon.html.BR'>"
p214
sS'local_import'
p215
S'<function <lambda> at 0x01FEDBF0>'
p216
sS'OPTGROUP'
p217
S"<class 'gluon.html.OPTGROUP'>"
p218
sS'PRE'
p219
S"<class 'gluon.html.PRE'>"
p220
sS'IS_INT_IN_RANGE'
p221
S"<class 'gluon.validators.IS_INT_IN_RANGE'>"
p222
sS'uuid'
p223
S"<module 'uuid' from 'C:\\Python25\\lib\\uuid.pyc'>"
p224
sS'IS_LOWER'
p225
S"<class 'gluon.validators.IS_LOWER'>"
p226
sS'IS_STRONG'
p227
S"<class 'gluon.validators.IS_STRONG'>"
p228
sS'Recaptcha'
p229
S"<class 'gluon.tools.Recaptcha'>"
p230
sS'cache'
p231
S'<gluon.cache.Cache object at 0x021F19D0>'
p232
sS'IS_IN_DB'
p233
S"<class 'gluon.validators.IS_IN_DB'>"
p234
sS'TAG'
p235
S'<gluon.html.__TAG__ object at 0x01875810>'
p236
sS'_k'
p237
S'8'
sS'SQLField'
p238
S"<class 'gluon.sql.Field'>"
p239
sS'BODY'
p240
S"<class 'gluon.html.BODY'>"
p241
sS'IS_DATE_IN_RANGE'
p242
S"<class 'gluon.validators.IS_DATE_IN_RANGE'>"
p243
sS'TH'
p244
S"<class 'gluon.html.TH'>"
p245
sS'URL'
p246
S'<function _URL at 0x01FEDA70>'
p247
sS'slider_widget'
p248
S'<function slider_widget at 0x01FF3B30>'
p249
sS'db'
p250
S"<SQLDB {'_connection': <sqlite3.Connection objec....Field object at 0x021FB590>}>, '_pool_size': 0}>"
p251
sg148
S'<gluon.tools.Auth object at 0x021F1630>'
p252
sS'P'
S"<class 'gluon.html.P'>"
p253
sS'TFOOT'
p254
S"<class 'gluon.html.TFOOT'>"
p255
sS'XHTML'
p256
S"<class 'gluon.html.XHTML'>"
p257
sg82
S'datetime.datetime(2010, 9, 19, 22, 51, 55, 843000)'
p258
sS'ON'
p259
g187
sS'OL'
p260
S"<class 'gluon.html.OL'>"
p261
sS'TEXTAREA'
p262
S"<class 'gluon.html.TEXTAREA'>"
p263
sS'MENU'
p264
S"<class 'gluon.html.MENU'>"
p265
sS'slider_widget2'
p266
S'<function slider_widget2 at 0x01FF3030>'
p267
sS'LOAD'
p268
S'<gluon.compileapp.LoadFactory instance at 0x01FE9030>'
p269
sS'CODE'
p270
S"<class 'gluon.html.CODE'>"
p271
sS'HTTP'
p272
S"<class 'gluon.http.HTTP'>"
p273
sS'HR'
p274
S"<class 'gluon.html.HR'>"
p275
sS'IS_DATETIME'
p276
S"<class 'gluon.validators.IS_DATETIME'>"
p277
sS'HEAD'
p278
S"<class 'gluon.html.HEAD'>"
p279
sS'LABEL'
p280
S"<class 'gluon.html.LABEL'>"
p281
sS'CLEANUP'
p282
S"<class 'gluon.validators.CLEANUP'>"
p283
sS'SELECT'
p284
S"<class 'gluon.html.SELECT'>"
p285
sS'CENTER'
p286
S"<class 'gluon.html.CENTER'>"
p287
sS'prettydate'
p288
S'<function prettydate at 0x0198E0B0>'
p289
sS'Crud'
p290
S"<class 'gluon.tools.Crud'>"
p291
sS'Auth'
p292
S"<class 'gluon.tools.Auth'>"
p293
sS'__builtins__'
p294
S"{'ArithmeticError': <type 'exceptions.ArithmeticError'>, 'AssertionError': <type 'exceptions.AssertionError'>, 'AttributeError': <type 'exceptions.AttributeError'>, 'BaseException': <type 'exceptions.BaseException'>, 'DeprecationWarning': <type 'exceptions.DeprecationWarning'>, 'EOFError': <type 'exceptions.EOFError'>, 'Ellipsis': Ellipsis, 'EnvironmentError': <type 'exceptions.EnvironmentError'>, 'Exception': <type 'exceptions.Exception'>, 'False': False, ...}"
p295
sS'IS_LIST_OF'
p296
S"<class 'gluon.validators.IS_LIST_OF'>"
p297
sS'SQLFORM'
p298
S"<class 'gluon.sqlhtml.SQLFORM'>"
p299
sS'EM'
p300
S"<class 'gluon.html.EM'>"
p301
sS'redirect'
p302
S'<function redirect at 0x018045F0>'
p303
sS'FIELDSET'
p304
S"<class 'gluon.html.FIELDSET'>"
p305
sS'IS_EQUAL_TO'
p306
S"<class 'gluon.validators.IS_EQUAL_TO'>"
p307
sS'embed64'
p308
S'<function embed64 at 0x01871170>'
p309
sS'INPUT'
p310
S"<class 'gluon.html.INPUT'>"
p311
sS'EMBED'
p312
S"<class 'gluon.html.EMBED'>"
p313
sS'FORM'
p314
S"<class 'gluon.html.FORM'>"
p315
sS'H2'
p316
S"<class 'gluon.html.H2'>"
p317
sS'H3'
p318
S"<class 'gluon.html.H3'>"
p319
sS'H1'
p320
S"<class 'gluon.html.H1'>"
p321
sS'H6'
p322
S"<class 'gluon.html.H6'>"
p323
sS'H4'
p324
S"<class 'gluon.html.H4'>"
p325
sS'H5'
p326
S"<class 'gluon.html.H5'>"
p327
sS'UL'
p328
S"<class 'gluon.html.UL'>"
p329
sS'IS_UPPER'
p330
S"<class 'gluon.validators.IS_UPPER'>"
p331
sS'xmlescape'
p332
S'<function xmlescape at 0x018657F0>'
p333
sS'IS_TIME'
p334
S"<class 'gluon.validators.IS_TIME'>"
p335
sS'OPTION'
p336
S"<class 'gluon.html.OPTION'>"
p337
sS'TITLE'
p338
S"<class 'gluon.html.TITLE'>"
p339
sS'CRYPT'
p340
S"<class 'gluon.validators.CRYPT'>"
p341
sS'IS_EMPTY_OR'
p342
S"<class 'gluon.validators.IS_EMPTY_OR'>"
p343
sS'MARKMIN'
p344
S"<class 'gluon.html.MARKMIN'>"
p345
sS'SCRIPT'
p346
S"<class 'gluon.html.SCRIPT'>"
p347
sS'geocode'
p348
S'<function geocode at 0x0198A9F0>'
p349
sS'TABLE'
p350
S"<class 'gluon.html.TABLE'>"
p351
sS'IS_IPV4'
p352
S"<class 'gluon.validators.IS_IPV4'>"
p353
sS'IS_LENGTH'
p354
S"<class 'gluon.validators.IS_LENGTH'>"
p355
sS'XML'
p356
S"<class 'gluon.html.XML'>"
p357
sS'B'
S"<class 'gluon.html.B'>"
p358
sS'form'
p359
S'<gluon.sqlhtml.SQLFORM object at 0x0234BCB0>'
p360
sS'SQLTABLE'
p361
S"<class 'gluon.sqlhtml.SQLTABLE'>"
p362
sS'IS_MATCH'
p363
S"<class 'gluon.validators.IS_MATCH'>"
p364
sS'IS_ALPHANUMERIC'
p365
S"<class 'gluon.validators.IS_ALPHANUMERIC'>"
p366
sS'SPAN'
p367
S"<class 'gluon.html.SPAN'>"
p368
sS'IS_SLUG'
p369
S"<class 'gluon.validators.IS_SLUG'>"
p370
sS'BEAUTIFY'
p371
S"<class 'gluon.html.BEAUTIFY'>"
p372
sS'META'
p373
S"<class 'gluon.html.META'>"
p374
sS'SQLDB'
p375
S"<class 'gluon.sql.SQLDB'>"
p376
sS'fetch'
p377
S'<function fetch at 0x01957930>'
p378
sS'IS_DATE'
p379
S"<class 'gluon.validators.IS_DATE'>"
p380
sS'IS_EMAIL'
p381
S"<class 'gluon.validators.IS_EMAIL'>"
p382
sS'IS_NOT_EMPTY'
p383
S"<class 'gluon.validators.IS_NOT_EMPTY'>"
p384
sg47
S"<Storage {'function': 'index', 'body': <cStringI... 22, 51, 55, 812000), 'post_vars': <Storage {}>}>"
p385
sS'TBODY'
p386
S"<class 'gluon.html.TBODY'>"
p387
sS'Field'
p388
S"<class 'gluon.sql.Field'>"
p389
sS'beats'
p390
S'<gluon.sql.Rows object at 0x021FFDF0>'
p391
sS'Mail'
p392
S"<class 'gluon.tools.Mail'>"
p393
sS'DIV'
p394
S"<class 'gluon.html.DIV'>"
p395
sS'LEGEND'
p396
S"<class 'gluon.html.LEGEND'>"
p397
sS'IMG'
p398
S"<class 'gluon.html.IMG'>"
p399
sS'DAL'
p400
S'<function DAL at 0x0189D0B0>'
p401
sS'TT'
p402
S"<class 'gluon.html.TT'>"
p403
sS'TR'
p404
S"<class 'gluon.html.TR'>"
p405
sS'LI'
p406
S"<class 'gluon.html.LI'>"
p407
sS'IFRAME'
p408
S"<class 'gluon.html.IFRAME'>"
p409
sS'TD'
p410
S"<class 'gluon.html.TD'>"
p411
sS'PluginManager'
p412
S"<class 'gluon.tools.PluginManager'>"
p413
sS'IS_URL'
p414
S"<class 'gluon.validators.IS_URL'>"
p415
sS'A'
S"<class 'gluon.html.A'>"
p416
sS'STYLE'
p417
S"<class 'gluon.html.STYLE'>"
p418
sS'IS_DATETIME_IN_RANGE'
p419
S"<class 'gluon.validators.IS_DATETIME_IN_RANGE'>"
p420
sS'HTML'
p421
S"<class 'gluon.html.HTML'>"
p422
sS'IS_IMAGE'
p423
S"<class 'gluon.validators.IS_IMAGE'>"
p424
sS'I'
S"<class 'gluon.html.I'>"
p425
sS'crud'
p426
S'<gluon.tools.Crud object at 0x022E2A50>'
p427
sS'IS_NOT_IN_DB'
p428
S"<class 'gluon.validators.IS_NOT_IN_DB'>"
p429
sg154
S"<Storage {'body': <cStringIO.StringO object at 0...a> at 0x01FEDB70>, 'view': 'default/index.html'}>"
p430
sS'THEAD'
p431
S"<class 'gluon.html.THEAD'>"
p432
sS'IS_NULL_OR'
p433
S"<class 'gluon.validators.IS_EMPTY_OR'>"
p434
sS'IS_FLOAT_IN_RANGE'
p435
S"<class 'gluon.validators.IS_FLOAT_IN_RANGE'>"
p436
sS'IS_EXPR'
p437
S"<class 'gluon.validators.IS_EXPR'>"
p438
sS'T'
S'<gluon.languages.translator object at 0x022E2190>'
p439
sS'RPXAccount'
p440
S"<class 'gluon.contrib.login_methods.rpx_account.RPXAccount'>"
p441
sS'IS_IN_SET'
p442
S"<class 'gluon.validators.IS_IN_SET'>"
p443
sS'IS_UPLOAD_FILENAME'
p444
S"<class 'gluon.validators.IS_UPLOAD_FILENAME'>"
p445
sS'time'
p446
S"<module 'time' (built-in)>"
p447
sS'IS_DECIMAL_IN_RANGE'
p448
S"<class 'gluon.validators.IS_DECIMAL_IN_RANGE'>"
p449
sssS'traceback'
p450
S'Traceback (most recent call last):\n  File "C:\\APPS\\augmi-a\\gluon\\restricted.py", line 188, in restricted\n    exec ccode in environment\n  File "C:\\APPS\\augmi-a\\applications\\init/views\\default/index.html", line 56, in <module>\nNameError: name \'page\' is not defined\n'
p451
s.